; Function Attrs: mustprogress uwtable
define dso_local void @_ZNSt3__119__shared_mutex_base11lock_sharedEv(ptr noundef nonnull align 8 dereferenceable(140) %0) local_unnamed_addr #1 align 2 {
  %2 = alloca %"class.std::__1::unique_lock", align 8
  call void @llvm.lifetime.start.p0(i64 16, ptr nonnull %2) #6
  store ptr %0, ptr %2, align 8, !tbaa !5
  %3 = getelementptr inbounds nuw i8, ptr %2, i64 8
  store i8 1, ptr %3, align 8, !tbaa !12
  tail call void @_ZNSt3__15mutex4lockEv(ptr noundef nonnull align 8 dereferenceable(40) %0)
  %4 = getelementptr inbounds nuw i8, ptr %0, i64 136
  %5 = load i32, ptr %4, align 8, !tbaa !13
  %or.cond3 = icmp ugt i32 %5, 2147483646
  br i1 %or.cond3, label %.critedge.lr.ph, label %._crit_edge.thread

._crit_edge.thread:                               ; preds = %1
  %6 = add nuw nsw i32 %5, 1
  store i32 %6, ptr %4, align 8, !tbaa !13
  br label %11

.critedge.lr.ph:                                  ; preds = %1
  %7 = getelementptr inbounds nuw i8, ptr %0, i64 40
  br label %.critedge

.critedge:                                        ; preds = %.critedge.lr.ph, %.critedge
  call void @_ZNSt3__118condition_variable4waitERNS_11unique_lockINS_5mutexEEE(ptr noundef nonnull align 8 dereferenceable(48) %7, ptr noundef nonnull align 8 dereferenceable(9) %2) #6
  %8 = load i32, ptr %4, align 8, !tbaa !13
  %or.cond = icmp ugt i32 %8, 2147483646
  br i1 %or.cond, label %.critedge, label %._crit_edge, !llvm.loop !23

._crit_edge:                                      ; preds = %.critedge
  %.pre = load i8, ptr %3, align 8, !tbaa !12, !range !21
  %9 = trunc nuw i8 %.pre to i1
  %10 = add nuw nsw i32 %8, 1
  store i32 %10, ptr %4, align 8, !tbaa !13
  br i1 %9, label %11, label %_ZNSt3__111unique_lockINS_5mutexEED2B8ne210000Ev.exit

11:                                               ; preds = %._crit_edge.thread, %._crit_edge
  %12 = load ptr, ptr %2, align 8, !tbaa !5
  call void @_ZNSt3__15mutex6unlockEv(ptr noundef nonnull align 8 dereferenceable(40) %12) #6
  br label %_ZNSt3__111unique_lockINS_5mutexEED2B8ne210000Ev.exit

_ZNSt3__111unique_lockINS_5mutexEED2B8ne210000Ev.exit: ; preds = %._crit_edge, %11
  call void @llvm.lifetime.end.p0(i64 16, ptr nonnull %2) #6
  ret void
}